; Function Attrs: nounwind uwtable
define hidden void @asn1_stack_frame_pop(ptr noundef captures(none) %0, ptr noundef readonly captures(none) %1) local_unnamed_addr #3 {
  %3 = getelementptr inbounds nuw i8, ptr %0, i64 32
  %4 = load ptr, ptr %3, align 8
  %.not = icmp eq ptr %4, null
  br i1 %.not, label %5, label %6

5:                                                ; preds = %2
  tail call void (ptr, ...) @proto_report_dissector_bug(ptr noundef nonnull @.str, ptr noundef nonnull @.str.1, i32 noundef 61, ptr noundef nonnull @.str.2) #11
  unreachable

6:                                                ; preds = %2
  %7 = load ptr, ptr %4, align 8
  %8 = tail call i32 @strcmp(ptr noundef nonnull dereferenceable(1) %7, ptr noundef nonnull dereferenceable(1) %1) #12
  %.not5 = icmp eq i32 %8, 0
  br i1 %.not5, label %10, label %9

9:                                                ; preds = %6
  tail call void (ptr, ...) @proto_report_dissector_bug(ptr noundef nonnull @.str, ptr noundef nonnull @.str.1, i32 noundef 62, ptr noundef nonnull @.str.3) #11
  unreachable

10:                                               ; preds = %6
  %11 = getelementptr inbounds nuw i8, ptr %4, i64 16
  %12 = load ptr, ptr %11, align 8
  store ptr %12, ptr %3, align 8
  ret void
}